target datalayout = "e-m:e-p270:32:32-p271:32:32-p272:64:64-i64:64-i128:128-f80:128-n8:16:32:64-S128"
target triple = "x86_64-pc-linux-gnu"

@.str = private unnamed_addr constant [74 x i8] c"[Clang 21.0.0 (++20250203042312+31db7afacf4d-1~exp1~20250203042441.2209)]\00", align 1

; Function Attrs: nounwind uwtable
define dso_local ptr @Py_GetCompiler() #0 {
  ret ptr @.str
}


!llvm.module.flags = !{!0, !1, !2, !3}

!0 = !{i32 1, !"wchar_size", i32 4}
!1 = !{i32 8, !"PIC Level", i32 2}
!2 = !{i32 7, !"PIE Level", i32 2}
!3 = !{i32 7, !"uwtable", i32 2}
